
lab2_timer_overflow.elf:     file format elf32-avr

Sections:
Idx Name          Size      VMA       LMA       File off  Algn
  0 .data         00000000  00800100  00800100  00000166  2**0
                  CONTENTS, ALLOC, LOAD, DATA
  1 .text         000000f2  00000000  00000000  00000074  2**1
                  CONTENTS, ALLOC, LOAD, READONLY, CODE
  2 .bss          00000002  00800100  00800100  00000166  2**0
                  ALLOC
  3 .comment      00000030  00000000  00000000  00000166  2**0
                  CONTENTS, READONLY
  4 .note.gnu.avr.deviceinfo 00000040  00000000  00000000  00000198  2**2
                  CONTENTS, READONLY
  5 .debug_aranges 00000028  00000000  00000000  000001d8  2**0
                  CONTENTS, READONLY, DEBUGGING
  6 .debug_info   000006a4  00000000  00000000  00000200  2**0
                  CONTENTS, READONLY, DEBUGGING
  7 .debug_abbrev 00000621  00000000  00000000  000008a4  2**0
                  CONTENTS, READONLY, DEBUGGING
  8 .debug_line   00000233  00000000  00000000  00000ec5  2**0
                  CONTENTS, READONLY, DEBUGGING
  9 .debug_frame  00000048  00000000  00000000  000010f8  2**2
                  CONTENTS, READONLY, DEBUGGING
 10 .debug_str    0000036e  00000000  00000000  00001140  2**0
                  CONTENTS, READONLY, DEBUGGING
 11 .debug_loc    00000049  00000000  00000000  000014ae  2**0
                  CONTENTS, READONLY, DEBUGGING
 12 .debug_ranges 00000018  00000000  00000000  000014f7  2**0
                  CONTENTS, READONLY, DEBUGGING

Disassembly of section .text:

00000000 <__vectors>:
   0:	0c 94 34 00 	jmp	0x68	; 0x68 <__ctors_end>
   4:	0c 94 46 00 	jmp	0x8c	; 0x8c <__bad_interrupt>
   8:	0c 94 46 00 	jmp	0x8c	; 0x8c <__bad_interrupt>
   c:	0c 94 46 00 	jmp	0x8c	; 0x8c <__bad_interrupt>
  10:	0c 94 46 00 	jmp	0x8c	; 0x8c <__bad_interrupt>
  14:	0c 94 46 00 	jmp	0x8c	; 0x8c <__bad_interrupt>
  18:	0c 94 46 00 	jmp	0x8c	; 0x8c <__bad_interrupt>
  1c:	0c 94 46 00 	jmp	0x8c	; 0x8c <__bad_interrupt>
  20:	0c 94 46 00 	jmp	0x8c	; 0x8c <__bad_interrupt>
  24:	0c 94 46 00 	jmp	0x8c	; 0x8c <__bad_interrupt>
  28:	0c 94 46 00 	jmp	0x8c	; 0x8c <__bad_interrupt>
  2c:	0c 94 46 00 	jmp	0x8c	; 0x8c <__bad_interrupt>
  30:	0c 94 46 00 	jmp	0x8c	; 0x8c <__bad_interrupt>
  34:	0c 94 46 00 	jmp	0x8c	; 0x8c <__bad_interrupt>
  38:	0c 94 54 00 	jmp	0xa8	; 0xa8 <__vector_14>
  3c:	0c 94 46 00 	jmp	0x8c	; 0x8c <__bad_interrupt>
  40:	0c 94 46 00 	jmp	0x8c	; 0x8c <__bad_interrupt>
  44:	0c 94 46 00 	jmp	0x8c	; 0x8c <__bad_interrupt>
  48:	0c 94 46 00 	jmp	0x8c	; 0x8c <__bad_interrupt>
  4c:	0c 94 46 00 	jmp	0x8c	; 0x8c <__bad_interrupt>
  50:	0c 94 46 00 	jmp	0x8c	; 0x8c <__bad_interrupt>
  54:	0c 94 46 00 	jmp	0x8c	; 0x8c <__bad_interrupt>
  58:	0c 94 46 00 	jmp	0x8c	; 0x8c <__bad_interrupt>
  5c:	0c 94 46 00 	jmp	0x8c	; 0x8c <__bad_interrupt>
  60:	0c 94 46 00 	jmp	0x8c	; 0x8c <__bad_interrupt>
  64:	0c 94 46 00 	jmp	0x8c	; 0x8c <__bad_interrupt>

00000068 <__ctors_end>:
  68:	11 24       	eor	r1, r1
  6a:	1f be       	out	0x3f, r1	; 63
  6c:	cf ef       	ldi	r28, 0xFF	; 255
  6e:	d8 e0       	ldi	r29, 0x08	; 8
  70:	de bf       	out	0x3e, r29	; 62
  72:	cd bf       	out	0x3d, r28	; 61

00000074 <__do_clear_bss>:
  74:	21 e0       	ldi	r18, 0x01	; 1
  76:	a0 e0       	ldi	r26, 0x00	; 0
  78:	b1 e0       	ldi	r27, 0x01	; 1
  7a:	01 c0       	rjmp	.+2      	; 0x7e <.do_clear_bss_start>

0000007c <.do_clear_bss_loop>:
  7c:	1d 92       	st	X+, r1

0000007e <.do_clear_bss_start>:
  7e:	a2 30       	cpi	r26, 0x02	; 2
  80:	b2 07       	cpc	r27, r18
  82:	e1 f7       	brne	.-8      	; 0x7c <.do_clear_bss_loop>
  84:	0e 94 48 00 	call	0x90	; 0x90 <main>
  88:	0c 94 77 00 	jmp	0xee	; 0xee <_exit>

0000008c <__bad_interrupt>:
  8c:	0c 94 00 00 	jmp	0	; 0x0 <__vectors>

00000090 <main>:

int extraTime = 0;

int main(void)
{
    DDRD = 0x40;
  90:	80 e4       	ldi	r24, 0x40	; 64
  92:	8a b9       	out	0x0a, r24	; 10
	TCCR0A = (1 << WGM01);
  94:	82 e0       	ldi	r24, 0x02	; 2
  96:	84 bd       	out	0x24, r24	; 36
	OCR0A = 195;
  98:	93 ec       	ldi	r25, 0xC3	; 195
  9a:	97 bd       	out	0x27, r25	; 39
	TIMSK0 = (1 << OCIE0A);
  9c:	80 93 6e 00 	sts	0x006E, r24	; 0x80006e <__TEXT_REGION_LENGTH__+0x7e006e>
	sei();
  a0:	78 94       	sei
	TCCR0B = (1 << CS02) | (1 << CS00);
  a2:	85 e0       	ldi	r24, 0x05	; 5
  a4:	85 bd       	out	0x25, r24	; 37
  a6:	ff cf       	rjmp	.-2      	; 0xa6 <main+0x16>

000000a8 <__vector_14>:
    {
    }
}

ISR(TIMER0_COMPA_vect)
{
  a8:	1f 92       	push	r1
  aa:	0f 92       	push	r0
  ac:	0f b6       	in	r0, 0x3f	; 63
  ae:	0f 92       	push	r0
  b0:	11 24       	eor	r1, r1
  b2:	8f 93       	push	r24
  b4:	9f 93       	push	r25
	extraTime++;
  b6:	80 91 00 01 	lds	r24, 0x0100	; 0x800100 <_edata>
  ba:	90 91 01 01 	lds	r25, 0x0101	; 0x800101 <_edata+0x1>
  be:	01 96       	adiw	r24, 0x01	; 1
	
	if(extraTime > 100)
  c0:	85 36       	cpi	r24, 0x65	; 101
  c2:	91 05       	cpc	r25, r1
  c4:	2c f4       	brge	.+10     	; 0xd0 <__vector_14+0x28>
    }
}

ISR(TIMER0_COMPA_vect)
{
	extraTime++;
  c6:	90 93 01 01 	sts	0x0101, r25	; 0x800101 <_edata+0x1>
  ca:	80 93 00 01 	sts	0x0100, r24	; 0x800100 <_edata>
  ce:	08 c0       	rjmp	.+16     	; 0xe0 <__vector_14+0x38>
	
	if(extraTime > 100)
	{
		extraTime = 0;
  d0:	10 92 01 01 	sts	0x0101, r1	; 0x800101 <_edata+0x1>
  d4:	10 92 00 01 	sts	0x0100, r1	; 0x800100 <_edata>
		PORTD ^= (1 << PORTD6);
  d8:	9b b1       	in	r25, 0x0b	; 11
  da:	80 e4       	ldi	r24, 0x40	; 64
  dc:	89 27       	eor	r24, r25
  de:	8b b9       	out	0x0b, r24	; 11
	}
}
  e0:	9f 91       	pop	r25
  e2:	8f 91       	pop	r24
  e4:	0f 90       	pop	r0
  e6:	0f be       	out	0x3f, r0	; 63
  e8:	0f 90       	pop	r0
  ea:	1f 90       	pop	r1
  ec:	18 95       	reti

000000ee <_exit>:
  ee:	f8 94       	cli

000000f0 <__stop_program>:
  f0:	ff cf       	rjmp	.-2      	; 0xf0 <__stop_program>
